target datalayout = "e-m:e-p270:32:32-p271:32:32-p272:64:64-i64:64-i128:128-f80:128-n8:16:32:64-S128"
target triple = "x86_64-pc-linux-gnu"

%"class.VrmlTranslator::Buffer" = type <{ ptr, ptr, i32, i32, i32, i32, i32, [4 x i8], ptr, i8, [7 x i8] }>

; Function Attrs: mustprogress uwtable
define noundef zeroext i1 @_ZN14VrmlTranslator6Buffer7CanSeekEv(ptr noundef nonnull align 8 dereferenceable(49) %0) #1 align 2 {
  %2 = alloca ptr, align 8
  store ptr %0, ptr %2, align 8
  %3 = load ptr, ptr %2, align 8
  %4 = getelementptr inbounds %"class.VrmlTranslator::Buffer", ptr %3, i32 0, i32 8
  %5 = load ptr, ptr %4, align 8
  %6 = icmp ne ptr %5, null
  br i1 %6, label %7, label %12

7:                                                ; preds = %1
  %8 = getelementptr inbounds %"class.VrmlTranslator::Buffer", ptr %3, i32 0, i32 8
  %9 = load ptr, ptr %8, align 8
  %10 = call i64 @ftell(ptr noundef %9)
  %11 = icmp ne i64 %10, -1
  br label %12

12:                                               ; preds = %7, %1
  %13 = phi i1 [ false, %1 ], [ %11, %7 ]
  ret i1 %13
}

; Function Attrs: mustprogress uwtable
define void @_ZN14VrmlTranslator6BufferC2EP8_IO_FILEb(ptr noundef nonnull align 8 dereferenceable(49) %0, ptr noundef %1, i1 noundef zeroext %2) unnamed_addr #1 align 2 {
  %4 = alloca ptr, align 8
  %5 = alloca ptr, align 8
  %6 = alloca i8, align 1
  store ptr %0, ptr %4, align 8
  store ptr %1, ptr %5, align 8
  %7 = zext i1 %2 to i8
  store i8 %7, ptr %6, align 1
  %8 = load ptr, ptr %4, align 8
  store ptr getelementptr inbounds ({ [10 x ptr] }, ptr @_ZTVN14VrmlTranslator6BufferE, i32 0, i32 0, i32 2), ptr %8, align 8
  %9 = load ptr, ptr %5, align 8
  %10 = getelementptr inbounds %"class.VrmlTranslator::Buffer", ptr %8, i32 0, i32 8
  store ptr %9, ptr %10, align 8
  %11 = load i8, ptr %6, align 1
  %12 = trunc i8 %11 to i1
  %13 = getelementptr inbounds %"class.VrmlTranslator::Buffer", ptr %8, i32 0, i32 9
  %14 = zext i1 %12 to i8
  store i8 %14, ptr %13, align 8
  %15 = call noundef zeroext i1 @_ZN14VrmlTranslator6Buffer7CanSeekEv(ptr noundef nonnull align 8 dereferenceable(49) %8)
  br i1 %15, label %16, label %36

16:                                               ; preds = %3
  %17 = load ptr, ptr %5, align 8
  %18 = call i32 @fseek(ptr noundef %17, i64 noundef 0, i32 noundef 2)
  %19 = load ptr, ptr %5, align 8
  %20 = call i64 @ftell(ptr noundef %19)
  %21 = trunc i64 %20 to i32
  %22 = getelementptr inbounds %"class.VrmlTranslator::Buffer", ptr %8, i32 0, i32 5
  store i32 %21, ptr %22, align 4
  %23 = load ptr, ptr %5, align 8
  %24 = call i32 @fseek(ptr noundef %23, i64 noundef 0, i32 noundef 0)
  %25 = getelementptr inbounds %"class.VrmlTranslator::Buffer", ptr %8, i32 0, i32 5
  %26 = load i32, ptr %25, align 4
  %27 = icmp slt i32 %26, 65536
  br i1 %27, label %28, label %31

28:                                               ; preds = %16
  %29 = getelementptr inbounds %"class.VrmlTranslator::Buffer", ptr %8, i32 0, i32 5
  %30 = load i32, ptr %29, align 4
  br label %32

31:                                               ; preds = %16
  br label %32

32:                                               ; preds = %31, %28
  %33 = phi i32 [ %30, %28 ], [ 65536, %31 ]
  %34 = getelementptr inbounds %"class.VrmlTranslator::Buffer", ptr %8, i32 0, i32 4
  store i32 %33, ptr %34, align 8
  %35 = getelementptr inbounds %"class.VrmlTranslator::Buffer", ptr %8, i32 0, i32 3
  store i32 2147483647, ptr %35, align 4
  br label %40

36:                                               ; preds = %3
  %37 = getelementptr inbounds %"class.VrmlTranslator::Buffer", ptr %8, i32 0, i32 3
  store i32 0, ptr %37, align 4
  %38 = getelementptr inbounds %"class.VrmlTranslator::Buffer", ptr %8, i32 0, i32 4
  store i32 0, ptr %38, align 8
  %39 = getelementptr inbounds %"class.VrmlTranslator::Buffer", ptr %8, i32 0, i32 5
  store i32 0, ptr %39, align 4
  br label %40

40:                                               ; preds = %36, %32
  %41 = getelementptr inbounds %"class.VrmlTranslator::Buffer", ptr %8, i32 0, i32 4
  %42 = load i32, ptr %41, align 8
  %43 = icmp sgt i32 %42, 0
  br i1 %43, label %44, label %47

44:                                               ; preds = %40
  %45 = getelementptr inbounds %"class.VrmlTranslator::Buffer", ptr %8, i32 0, i32 4
  %46 = load i32, ptr %45, align 8
  br label %48

47:                                               ; preds = %40
  br label %48

48:                                               ; preds = %47, %44
  %49 = phi i32 [ %46, %44 ], [ 1024, %47 ]
  %50 = getelementptr inbounds %"class.VrmlTranslator::Buffer", ptr %8, i32 0, i32 2
  store i32 %49, ptr %50, align 8
  %51 = getelementptr inbounds %"class.VrmlTranslator::Buffer", ptr %8, i32 0, i32 2
  %52 = load i32, ptr %51, align 8
  %53 = sext i32 %52 to i64
  %54 = call noalias noundef nonnull ptr @_Znam(i64 noundef %53) #14
  %55 = getelementptr inbounds %"class.VrmlTranslator::Buffer", ptr %8, i32 0, i32 1
  store ptr %54, ptr %55, align 8
  %56 = getelementptr inbounds %"class.VrmlTranslator::Buffer", ptr %8, i32 0, i32 5
  %57 = load i32, ptr %56, align 4
  %58 = icmp sgt i32 %57, 0
  br i1 %58, label %59, label %63

59:                                               ; preds = %48
  %60 = load ptr, ptr %8, align 8
  %61 = getelementptr inbounds ptr, ptr %60, i64 7
  %62 = load ptr, ptr %61, align 8
  call void %62(ptr noundef nonnull align 8 dereferenceable(49) %8, i32 noundef 0)
  br label %65

63:                                               ; preds = %48
  %64 = getelementptr inbounds %"class.VrmlTranslator::Buffer", ptr %8, i32 0, i32 6
  store i32 0, ptr %64, align 8
  br label %65

65:                                               ; preds = %63, %59
  %66 = getelementptr inbounds %"class.VrmlTranslator::Buffer", ptr %8, i32 0, i32 4
  %67 = load i32, ptr %66, align 8
  %68 = getelementptr inbounds %"class.VrmlTranslator::Buffer", ptr %8, i32 0, i32 5
  %69 = load i32, ptr %68, align 4
  %70 = icmp eq i32 %67, %69
  br i1 %70, label %71, label %77

71:                                               ; preds = %65
  %72 = call noundef zeroext i1 @_ZN14VrmlTranslator6Buffer7CanSeekEv(ptr noundef nonnull align 8 dereferenceable(49) %8)
  br i1 %72, label %73, label %77

73:                                               ; preds = %71
  %74 = load ptr, ptr %8, align 8
  %75 = getelementptr inbounds ptr, ptr %74, i64 2
  %76 = load ptr, ptr %75, align 8
  call void %76(ptr noundef nonnull align 8 dereferenceable(49) %8)
  br label %77

77:                                               ; preds = %73, %71, %65
  ret void
}