; Function Attrs: mustprogress uwtable
define void @_ZN14VrmlTranslator6BufferC2EP8_IO_FILEb(ptr noundef nonnull align 8 dereferenceable(49) %0, ptr noundef %1, i1 noundef zeroext %2) unnamed_addr #2 align 2 {
  %4 = zext i1 %2 to i8
  store ptr getelementptr inbounds ({ [10 x ptr] }, ptr @_ZTVN14VrmlTranslator6BufferE, i64 0, i32 0, i64 2), ptr %0, align 8
  %5 = getelementptr inbounds i8, ptr %0, i64 40
  store ptr %1, ptr %5, align 8
  %6 = getelementptr inbounds i8, ptr %0, i64 48
  store i8 %4, ptr %6, align 8
  %.not.i = icmp eq ptr %1, null
  br i1 %.not.i, label %.thread, label %_ZN14VrmlTranslator6Buffer7CanSeekEv.exit

_ZN14VrmlTranslator6Buffer7CanSeekEv.exit:        ; preds = %3
  %7 = tail call i64 @ftell(ptr noundef nonnull %1)
  %.not = icmp eq i64 %7, -1
  br i1 %.not, label %.thread, label %11

.thread:                                          ; preds = %_ZN14VrmlTranslator6Buffer7CanSeekEv.exit, %3
  %8 = getelementptr inbounds i8, ptr %0, i64 20
  store i32 0, ptr %8, align 4
  %9 = getelementptr inbounds i8, ptr %0, i64 24
  store i32 0, ptr %9, align 8
  %10 = getelementptr inbounds i8, ptr %0, i64 28
  store i32 0, ptr %10, align 4
  br label %21

11:                                               ; preds = %_ZN14VrmlTranslator6Buffer7CanSeekEv.exit
  %12 = tail call i32 @fseek(ptr noundef nonnull %1, i64 noundef 0, i32 noundef 2)
  %13 = tail call i64 @ftell(ptr noundef nonnull %1)
  %14 = trunc i64 %13 to i32
  %15 = getelementptr inbounds i8, ptr %0, i64 28
  store i32 %14, ptr %15, align 4
  %16 = tail call i32 @fseek(ptr noundef nonnull %1, i64 noundef 0, i32 noundef 0)
  %17 = load i32, ptr %15, align 4
  %.fr = freeze i32 %17
  %spec.select = tail call i32 @llvm.smin.i32(i32 %.fr, i32 65536)
  %18 = getelementptr inbounds i8, ptr %0, i64 24
  store i32 %spec.select, ptr %18, align 8
  %19 = getelementptr inbounds i8, ptr %0, i64 20
  store i32 2147483647, ptr %19, align 4
  %20 = icmp sgt i32 %.fr, 0
  %spec.select12 = select i1 %20, i32 %spec.select, i32 1024
  br label %21

21:                                               ; preds = %11, %.thread
  %22 = phi i32 [ 0, %.thread ], [ %spec.select, %11 ]
  %23 = phi i32 [ 0, %.thread ], [ %.fr, %11 ]
  %24 = phi i32 [ 1024, %.thread ], [ %spec.select12, %11 ]
  %25 = getelementptr inbounds i8, ptr %0, i64 16
  store i32 %24, ptr %25, align 8
  %26 = zext nneg i32 %24 to i64
  %27 = tail call noalias noundef nonnull ptr @_Znam(i64 noundef %26) #21
  %28 = getelementptr inbounds i8, ptr %0, i64 8
  store ptr %27, ptr %28, align 8
  %29 = icmp sgt i32 %23, 0
  br i1 %29, label %30, label %36

30:                                               ; preds = %21
  %31 = getelementptr inbounds i8, ptr %0, i64 28
  %32 = getelementptr inbounds i8, ptr %0, i64 24
  %33 = load ptr, ptr %0, align 8
  %34 = getelementptr inbounds i8, ptr %33, i64 56
  %35 = load ptr, ptr %34, align 8
  tail call void %35(ptr noundef nonnull align 8 dereferenceable(49) %0, i32 noundef 0)
  %.pre = load i32, ptr %32, align 8
  %.pre10 = load i32, ptr %31, align 4
  br label %38

36:                                               ; preds = %21
  %37 = getelementptr inbounds i8, ptr %0, i64 32
  store i32 0, ptr %37, align 8
  br label %38

38:                                               ; preds = %36, %30
  %39 = phi i32 [ %23, %36 ], [ %.pre10, %30 ]
  %40 = phi i32 [ %22, %36 ], [ %.pre, %30 ]
  %41 = icmp eq i32 %40, %39
  br i1 %41, label %42, label %_ZN14VrmlTranslator6Buffer7CanSeekEv.exit8.thread

42:                                               ; preds = %38
  %43 = load ptr, ptr %5, align 8
  %.not.i7 = icmp eq ptr %43, null
  br i1 %.not.i7, label %_ZN14VrmlTranslator6Buffer7CanSeekEv.exit8.thread, label %_ZN14VrmlTranslator6Buffer7CanSeekEv.exit8

_ZN14VrmlTranslator6Buffer7CanSeekEv.exit8:       ; preds = %42
  %44 = tail call i64 @ftell(ptr noundef nonnull %43)
  %.not9 = icmp eq i64 %44, -1
  br i1 %.not9, label %_ZN14VrmlTranslator6Buffer7CanSeekEv.exit8.thread, label %45

45:                                               ; preds = %_ZN14VrmlTranslator6Buffer7CanSeekEv.exit8
  %46 = load ptr, ptr %0, align 8
  %47 = getelementptr inbounds i8, ptr %46, i64 16
  %48 = load ptr, ptr %47, align 8
  tail call void %48(ptr noundef nonnull align 8 dereferenceable(49) %0)
  br label %_ZN14VrmlTranslator6Buffer7CanSeekEv.exit8.thread

_ZN14VrmlTranslator6Buffer7CanSeekEv.exit8.thread: ; preds = %42, %45, %_ZN14VrmlTranslator6Buffer7CanSeekEv.exit8, %38
  ret void
}